target datalayout = "e-m:e-p270:32:32-p271:32:32-p272:64:64-i64:64-i128:128-f80:128-n8:16:32:64-S128"
target triple = "x86_64-pc-linux-gnu"

%struct.PJconsts = type { ptr, ptr, ptr, ptr, ptr, ptr, ptr, ptr, ptr, ptr, ptr, ptr, i32, ptr, ptr, ptr, ptr, ptr, ptr, ptr, ptr, double, double, double, double, double, double, double, double, double, double, double, double, double, double, double, double, double, double, double, double, double, double, i32, i32, i32, i32, i32, i32, i32, i32, i32, i32, i32, ptr, ptr, ptr, ptr, ptr, ptr, double, double, double, double, double, double, double, double, double, double, double, i32, [7 x double], i32, ptr, ptr, double, double, i32, [4 x i8], %"class.std::shared_ptr", i8, double, i8, %"class.std::__cxx11::basic_string", %"class.std::__cxx11::basic_string", %"class.std::__cxx11::basic_string", i8, %"class.std::vector", i32, %"class.std::vector.3", i32, i8, i8, i8, ptr }
%"class.std::shared_ptr" = type { %"class.std::__shared_ptr" }
%"class.std::__shared_ptr" = type { ptr, %"class.std::__shared_count" }
%"class.std::__shared_count" = type { ptr }
%"class.std::__cxx11::basic_string" = type { %"struct.std::__cxx11::basic_string<char>::_Alloc_hider", i64, %union.anon }
%"struct.std::__cxx11::basic_string<char>::_Alloc_hider" = type { ptr }
%union.anon = type { i64, [8 x i8] }
%"class.std::vector" = type { %"struct.std::_Vector_base" }
%"struct.std::_Vector_base" = type { %"struct.std::_Vector_base<osgeo::proj::operation::GridDescription, std::allocator<osgeo::proj::operation::GridDescription>>::_Vector_impl" }
%"struct.std::_Vector_base<osgeo::proj::operation::GridDescription, std::allocator<osgeo::proj::operation::GridDescription>>::_Vector_impl" = type { %"struct.std::_Vector_base<osgeo::proj::operation::GridDescription, std::allocator<osgeo::proj::operation::GridDescription>>::_Vector_impl_data" }
%"struct.std::_Vector_base<osgeo::proj::operation::GridDescription, std::allocator<osgeo::proj::operation::GridDescription>>::_Vector_impl_data" = type { ptr, ptr, ptr }
%"class.std::vector.3" = type { %"struct.std::_Vector_base.4" }
%"struct.std::_Vector_base.4" = type { %"struct.std::_Vector_base<PJCoordOperation, std::allocator<PJCoordOperation>>::_Vector_impl" }
%"struct.std::_Vector_base<PJCoordOperation, std::allocator<PJCoordOperation>>::_Vector_impl" = type { %"struct.std::_Vector_base<PJCoordOperation, std::allocator<PJCoordOperation>>::_Vector_impl_data" }
%"struct.std::_Vector_base<PJCoordOperation, std::allocator<PJCoordOperation>>::_Vector_impl_data" = type { ptr, ptr, ptr }
%"struct.(anonymous namespace)::pj_poly_data" = type { double, ptr }

; Function Attrs: mustprogress uwtable
define hidden noundef ptr @_Z33pj_projection_specific_setup_polyP8PJconsts(ptr noundef %0) #0 {
  %2 = alloca ptr, align 8
  %3 = alloca ptr, align 8
  %4 = alloca ptr, align 8
  %5 = alloca i32, align 4
  store ptr %0, ptr %3, align 8, !tbaa !3
  call void @llvm.lifetime.start.p0(i64 8, ptr %4) #8
  %6 = call noalias ptr @calloc(i64 noundef 1, i64 noundef 16) #9
  store ptr %6, ptr %4, align 8, !tbaa !41
  %7 = load ptr, ptr %4, align 8, !tbaa !41
  %8 = icmp eq ptr null, %7
  br i1 %8, label %9, label %12

9:                                                ; preds = %1
  %10 = load ptr, ptr %3, align 8, !tbaa !3
  %11 = call noundef ptr @_Z21pj_default_destructorP8PJconstsi(ptr noundef %10, i32 noundef 4096)
  store ptr %11, ptr %2, align 8
  store i32 1, ptr %5, align 4
  br label %68

12:                                               ; preds = %1
  %13 = load ptr, ptr %4, align 8, !tbaa !41
  %14 = load ptr, ptr %3, align 8, !tbaa !3
  %15 = getelementptr inbounds nuw %struct.PJconsts, ptr %14, i32 0, i32 11
  store ptr %13, ptr %15, align 8, !tbaa !43
  %16 = load ptr, ptr %3, align 8, !tbaa !3
  %17 = getelementptr inbounds nuw %struct.PJconsts, ptr %16, i32 0, i32 19
  store ptr @_ZL18pj_poly_destructorP8PJconstsi, ptr %17, align 8, !tbaa !44
  %18 = load ptr, ptr %3, align 8, !tbaa !3
  %19 = getelementptr inbounds nuw %struct.PJconsts, ptr %18, i32 0, i32 27
  %20 = load double, ptr %19, align 8, !tbaa !45
  %21 = fcmp une double %20, 0.000000e+00
  br i1 %21, label %22, label %55

22:                                               ; preds = %12
  %23 = load ptr, ptr %3, align 8, !tbaa !3
  %24 = getelementptr inbounds nuw %struct.PJconsts, ptr %23, i32 0, i32 36
  %25 = load double, ptr %24, align 8, !tbaa !46
  %26 = call noundef ptr @_Z7pj_enfnd(double noundef %25)
  %27 = load ptr, ptr %4, align 8, !tbaa !41
  %28 = getelementptr inbounds nuw %"struct.(anonymous namespace)::pj_poly_data", ptr %27, i32 0, i32 1
  store ptr %26, ptr %28, align 8, !tbaa !47
  %29 = icmp ne ptr %26, null
  br i1 %29, label %33, label %30

30:                                               ; preds = %22
  %31 = load ptr, ptr %3, align 8, !tbaa !3
  %32 = call noundef ptr @_Z21pj_default_destructorP8PJconstsi(ptr noundef %31, i32 noundef 4096)
  store ptr %32, ptr %2, align 8
  store i32 1, ptr %5, align 4
  br label %68

33:                                               ; preds = %22
  %34 = load ptr, ptr %3, align 8, !tbaa !3
  %35 = getelementptr inbounds nuw %struct.PJconsts, ptr %34, i32 0, i32 61
  %36 = load double, ptr %35, align 8, !tbaa !50
  %37 = load ptr, ptr %3, align 8, !tbaa !3
  %38 = getelementptr inbounds nuw %struct.PJconsts, ptr %37, i32 0, i32 61
  %39 = load double, ptr %38, align 8, !tbaa !50
  %40 = call double @sin(double noundef %39) #8, !tbaa !51
  %41 = load ptr, ptr %3, align 8, !tbaa !3
  %42 = getelementptr inbounds nuw %struct.PJconsts, ptr %41, i32 0, i32 61
  %43 = load double, ptr %42, align 8, !tbaa !50
  %44 = call double @cos(double noundef %43) #8, !tbaa !51
  %45 = load ptr, ptr %4, align 8, !tbaa !41
  %46 = getelementptr inbounds nuw %"struct.(anonymous namespace)::pj_poly_data", ptr %45, i32 0, i32 1
  %47 = load ptr, ptr %46, align 8, !tbaa !47
  %48 = call noundef double @_Z7pj_mlfndddPKd(double noundef %36, double noundef %40, double noundef %44, ptr noundef %47)
  %49 = load ptr, ptr %4, align 8, !tbaa !41
  %50 = getelementptr inbounds nuw %"struct.(anonymous namespace)::pj_poly_data", ptr %49, i32 0, i32 0
  store double %48, ptr %50, align 8, !tbaa !52
  %51 = load ptr, ptr %3, align 8, !tbaa !3
  %52 = getelementptr inbounds nuw %struct.PJconsts, ptr %51, i32 0, i32 14
  store ptr @_ZL14poly_e_inverse5PJ_XYP8PJconsts, ptr %52, align 8, !tbaa !53
  %53 = load ptr, ptr %3, align 8, !tbaa !3
  %54 = getelementptr inbounds nuw %struct.PJconsts, ptr %53, i32 0, i32 13
  store ptr @_ZL14poly_e_forward5PJ_LPP8PJconsts, ptr %54, align 8, !tbaa !54
  br label %66

55:                                               ; preds = %12
  %56 = load ptr, ptr %3, align 8, !tbaa !3
  %57 = getelementptr inbounds nuw %struct.PJconsts, ptr %56, i32 0, i32 61
  %58 = load double, ptr %57, align 8, !tbaa !50
  %59 = fneg double %58
  %60 = load ptr, ptr %4, align 8, !tbaa !41
  %61 = getelementptr inbounds nuw %"struct.(anonymous namespace)::pj_poly_data", ptr %60, i32 0, i32 0
  store double %59, ptr %61, align 8, !tbaa !52
  %62 = load ptr, ptr %3, align 8, !tbaa !3
  %63 = getelementptr inbounds nuw %struct.PJconsts, ptr %62, i32 0, i32 14
  store ptr @_ZL14poly_s_inverse5PJ_XYP8PJconsts, ptr %63, align 8, !tbaa !53
  %64 = load ptr, ptr %3, align 8, !tbaa !3
  %65 = getelementptr inbounds nuw %struct.PJconsts, ptr %64, i32 0, i32 13
  store ptr @_ZL14poly_s_forward5PJ_LPP8PJconsts, ptr %65, align 8, !tbaa !54
  br label %66

66:                                               ; preds = %55, %33
  %67 = load ptr, ptr %3, align 8, !tbaa !3
  store ptr %67, ptr %2, align 8
  store i32 1, ptr %5, align 4
  br label %68

68:                                               ; preds = %66, %30, %9
  call void @llvm.lifetime.end.p0(i64 8, ptr %4) #8
  %69 = load ptr, ptr %2, align 8
  ret ptr %69
}