; Function Attrs: mustprogress uwtable
define hidden noundef ptr @_Z33pj_projection_specific_setup_polyP8PJconsts(ptr noundef %0) local_unnamed_addr #0 {
  %2 = tail call noalias dereferenceable_or_null(16) ptr @calloc(i64 noundef 1, i64 noundef 16) #7
  %3 = icmp eq ptr %2, null
  br i1 %3, label %4, label %6

4:                                                ; preds = %1
  %5 = tail call noundef ptr @_Z21pj_default_destructorP8PJconstsi(ptr noundef %0, i32 noundef 4096)
  br label %33

6:                                                ; preds = %1
  %7 = getelementptr inbounds nuw i8, ptr %0, i64 88
  store ptr %2, ptr %7, align 8, !tbaa !40
  %8 = getelementptr inbounds nuw i8, ptr %0, i64 152
  store ptr @_ZL18pj_poly_destructorP8PJconstsi, ptr %8, align 8, !tbaa !41
  %9 = getelementptr inbounds nuw i8, ptr %0, i64 216
  %10 = load double, ptr %9, align 8, !tbaa !42
  %11 = fcmp une double %10, 0.000000e+00
  br i1 %11, label %12, label %27

12:                                               ; preds = %6
  %13 = getelementptr inbounds nuw i8, ptr %0, i64 288
  %14 = load double, ptr %13, align 8, !tbaa !43
  %15 = tail call noundef ptr @_Z7pj_enfnd(double noundef %14)
  %16 = getelementptr inbounds nuw i8, ptr %2, i64 8
  store ptr %15, ptr %16, align 8, !tbaa !44
  %.not = icmp eq ptr %15, null
  br i1 %.not, label %17, label %19

17:                                               ; preds = %12
  %18 = tail call noundef ptr @_Z21pj_default_destructorP8PJconstsi(ptr noundef nonnull %0, i32 noundef 4096)
  br label %33

19:                                               ; preds = %12
  %20 = getelementptr inbounds nuw i8, ptr %0, i64 448
  %21 = load double, ptr %20, align 8, !tbaa !47
  %22 = tail call double @sin(double noundef %21) #8, !tbaa !48
  %23 = tail call double @cos(double noundef %21) #8, !tbaa !48
  %24 = tail call noundef double @_Z7pj_mlfndddPKd(double noundef %21, double noundef %22, double noundef %23, ptr noundef nonnull %15)
  store double %24, ptr %2, align 8, !tbaa !49
  %25 = getelementptr inbounds nuw i8, ptr %0, i64 112
  store ptr @_ZL14poly_e_inverse5PJ_XYP8PJconsts, ptr %25, align 8, !tbaa !50
  %26 = getelementptr inbounds nuw i8, ptr %0, i64 104
  store ptr @_ZL14poly_e_forward5PJ_LPP8PJconsts, ptr %26, align 8, !tbaa !51
  br label %33

27:                                               ; preds = %6
  %28 = getelementptr inbounds nuw i8, ptr %0, i64 448
  %29 = load double, ptr %28, align 8, !tbaa !47
  %30 = fneg double %29
  store double %30, ptr %2, align 8, !tbaa !49
  %31 = getelementptr inbounds nuw i8, ptr %0, i64 112
  store ptr @_ZL14poly_s_inverse5PJ_XYP8PJconsts, ptr %31, align 8, !tbaa !50
  %32 = getelementptr inbounds nuw i8, ptr %0, i64 104
  store ptr @_ZL14poly_s_forward5PJ_LPP8PJconsts, ptr %32, align 8, !tbaa !51
  br label %33

33:                                               ; preds = %19, %27, %17, %4
  %.0 = phi ptr [ %5, %4 ], [ %18, %17 ], [ %0, %27 ], [ %0, %19 ]
  ret ptr %.0
}